target datalayout = "e-m:e-p270:32:32-p271:32:32-p272:64:64-i64:64-i128:128-f80:128-n8:16:32:64-S128"
target triple = "x86_64-pc-linux-gnu"

%struct.AVFilterContext = type { ptr, ptr, ptr, ptr, ptr, i32, ptr, ptr, i32, ptr, ptr, i32, i32, ptr, ptr, ptr, ptr, i32, ptr, i32, i32 }
%struct.AVFilterPad = type { ptr, i32, i32, %union.anon, ptr, ptr, ptr }
%union.anon = type { ptr }
%struct.FFFilterContext = type { %struct.AVFilterContext, ptr, i32, i32, ptr, ptr, ptr }
%struct.FFFilter = type { %struct.AVFilter, i8, i8, i8, ptr, ptr, ptr, %union.anon.1, i32, i32, ptr, ptr }
%struct.AVFilter = type { ptr, ptr, ptr, ptr, ptr, i32 }
%union.anon.1 = type { ptr }
%struct.AVFilterCommand = type { double, ptr, ptr, i32, ptr }

; Function Attrs: nounwind uwtable
define internal void @command_queue_pop(ptr noundef %0) #0 {
  %2 = alloca ptr, align 8
  %3 = alloca ptr, align 8
  %4 = alloca ptr, align 8
  store ptr %0, ptr %2, align 8, !tbaa !4
  call void @llvm.lifetime.start.p0(i64 8, ptr %3) #11
  %5 = load ptr, ptr %2, align 8, !tbaa !4
  %6 = call ptr @fffilterctx(ptr noundef %5)
  store ptr %6, ptr %3, align 8, !tbaa !74
  call void @llvm.lifetime.start.p0(i64 8, ptr %4) #11
  %7 = load ptr, ptr %3, align 8, !tbaa !74
  %8 = getelementptr inbounds nuw %struct.FFFilterContext, ptr %7, i32 0, i32 6
  %9 = load ptr, ptr %8, align 8, !tbaa !149
  store ptr %9, ptr %4, align 8, !tbaa !151
  %10 = load ptr, ptr %4, align 8, !tbaa !151
  %11 = getelementptr inbounds nuw %struct.AVFilterCommand, ptr %10, i32 0, i32 2
  call void @av_freep(ptr noundef %11)
  %12 = load ptr, ptr %4, align 8, !tbaa !151
  %13 = getelementptr inbounds nuw %struct.AVFilterCommand, ptr %12, i32 0, i32 1
  call void @av_freep(ptr noundef %13)
  %14 = load ptr, ptr %4, align 8, !tbaa !151
  %15 = getelementptr inbounds nuw %struct.AVFilterCommand, ptr %14, i32 0, i32 4
  %16 = load ptr, ptr %15, align 8, !tbaa !152
  %17 = load ptr, ptr %3, align 8, !tbaa !74
  %18 = getelementptr inbounds nuw %struct.FFFilterContext, ptr %17, i32 0, i32 6
  store ptr %16, ptr %18, align 8, !tbaa !149
  %19 = load ptr, ptr %4, align 8, !tbaa !151
  call void @av_free(ptr noundef %19)
  call void @llvm.lifetime.end.p0(i64 8, ptr %4) #11
  call void @llvm.lifetime.end.p0(i64 8, ptr %3) #11
  ret void
}

; Function Attrs: inlinehint nounwind uwtable
define internal ptr @fffilter(ptr noundef %0) #4 {
  %2 = alloca ptr, align 8
  store ptr %0, ptr %2, align 8, !tbaa !119
  %3 = load ptr, ptr %2, align 8, !tbaa !119
  ret ptr %3
}

; Function Attrs: inlinehint nounwind uwtable
define internal ptr @fffilterctx(ptr noundef %0) #4 {
  %2 = alloca ptr, align 8
  store ptr %0, ptr %2, align 8, !tbaa !4
  %3 = load ptr, ptr %2, align 8, !tbaa !4
  ret ptr %3
}

; Function Attrs: nounwind uwtable
define void @avfilter_free(ptr noundef %0) #0 {
  %2 = alloca ptr, align 8
  %3 = alloca ptr, align 8
  %4 = alloca i32, align 4
  %5 = alloca i32, align 4
  store ptr %0, ptr %2, align 8, !tbaa !4
  call void @llvm.lifetime.start.p0(i64 8, ptr %3) #11
  call void @llvm.lifetime.start.p0(i64 4, ptr %4) #11
  %6 = load ptr, ptr %2, align 8, !tbaa !4
  %7 = icmp ne ptr %6, null
  br i1 %7, label %9, label %8

8:                                                ; preds = %1
  store i32 1, ptr %5, align 4
  br label %154

9:                                                ; preds = %1
  %10 = load ptr, ptr %2, align 8, !tbaa !4
  %11 = call ptr @fffilterctx(ptr noundef %10)
  store ptr %11, ptr %3, align 8, !tbaa !74
  %12 = load ptr, ptr %2, align 8, !tbaa !4
  %13 = getelementptr inbounds nuw %struct.AVFilterContext, ptr %12, i32 0, i32 10
  %14 = load ptr, ptr %13, align 8, !tbaa !28
  %15 = icmp ne ptr %14, null
  br i1 %15, label %16, label %21

16:                                               ; preds = %9
  %17 = load ptr, ptr %2, align 8, !tbaa !4
  %18 = getelementptr inbounds nuw %struct.AVFilterContext, ptr %17, i32 0, i32 10
  %19 = load ptr, ptr %18, align 8, !tbaa !28
  %20 = load ptr, ptr %2, align 8, !tbaa !4
  call void @ff_filter_graph_remove_filter(ptr noundef %19, ptr noundef %20)
  br label %21

21:                                               ; preds = %16, %9
  %22 = load ptr, ptr %2, align 8, !tbaa !4
  %23 = getelementptr inbounds nuw %struct.AVFilterContext, ptr %22, i32 0, i32 1
  %24 = load ptr, ptr %23, align 8, !tbaa !110
  %25 = call ptr @fffilter(ptr noundef %24)
  %26 = getelementptr inbounds nuw %struct.FFFilter, ptr %25, i32 0, i32 6
  %27 = load ptr, ptr %26, align 8, !tbaa !145
  %28 = icmp ne ptr %27, null
  br i1 %28, label %29, label %37

29:                                               ; preds = %21
  %30 = load ptr, ptr %2, align 8, !tbaa !4
  %31 = getelementptr inbounds nuw %struct.AVFilterContext, ptr %30, i32 0, i32 1
  %32 = load ptr, ptr %31, align 8, !tbaa !110
  %33 = call ptr @fffilter(ptr noundef %32)
  %34 = getelementptr inbounds nuw %struct.FFFilter, ptr %33, i32 0, i32 6
  %35 = load ptr, ptr %34, align 8, !tbaa !145
  %36 = load ptr, ptr %2, align 8, !tbaa !4
  call void %35(ptr noundef %36)
  br label %37

37:                                               ; preds = %29, %21
  store i32 0, ptr %4, align 4, !tbaa !19
  br label %38

38:                                               ; preds = %71, %37
  %39 = load i32, ptr %4, align 4, !tbaa !19
  %40 = load ptr, ptr %2, align 8, !tbaa !4
  %41 = getelementptr inbounds nuw %struct.AVFilterContext, ptr %40, i32 0, i32 5
  %42 = load i32, ptr %41, align 8, !tbaa !37
  %43 = icmp ult i32 %39, %42
  br i1 %43, label %44, label %74

44:                                               ; preds = %38
  %45 = load ptr, ptr %2, align 8, !tbaa !4
  %46 = getelementptr inbounds nuw %struct.AVFilterContext, ptr %45, i32 0, i32 4
  %47 = load ptr, ptr %46, align 8, !tbaa !39
  %48 = load i32, ptr %4, align 4, !tbaa !19
  %49 = sext i32 %48 to i64
  %50 = getelementptr inbounds ptr, ptr %47, i64 %49
  %51 = load ptr, ptr %50, align 8, !tbaa !26
  call void @free_link(ptr noundef %51)
  %52 = load ptr, ptr %2, align 8, !tbaa !4
  %53 = getelementptr inbounds nuw %struct.AVFilterContext, ptr %52, i32 0, i32 3
  %54 = load ptr, ptr %53, align 8, !tbaa !45
  %55 = load i32, ptr %4, align 4, !tbaa !19
  %56 = sext i32 %55 to i64
  %57 = getelementptr inbounds %struct.AVFilterPad, ptr %54, i64 %56
  %58 = getelementptr inbounds nuw %struct.AVFilterPad, ptr %57, i32 0, i32 2
  %59 = load i32, ptr %58, align 4, !tbaa !23
  %60 = and i32 %59, 2
  %61 = icmp ne i32 %60, 0
  br i1 %61, label %62, label %70

62:                                               ; preds = %44
  %63 = load ptr, ptr %2, align 8, !tbaa !4
  %64 = getelementptr inbounds nuw %struct.AVFilterContext, ptr %63, i32 0, i32 3
  %65 = load ptr, ptr %64, align 8, !tbaa !45
  %66 = load i32, ptr %4, align 4, !tbaa !19
  %67 = sext i32 %66 to i64
  %68 = getelementptr inbounds %struct.AVFilterPad, ptr %65, i64 %67
  %69 = getelementptr inbounds nuw %struct.AVFilterPad, ptr %68, i32 0, i32 0
  call void @av_freep(ptr noundef %69)
  br label %70

70:                                               ; preds = %62, %44
  br label %71

71:                                               ; preds = %70
  %72 = load i32, ptr %4, align 4, !tbaa !19
  %73 = add nsw i32 %72, 1
  store i32 %73, ptr %4, align 4, !tbaa !19
  br label %38, !llvm.loop !147

74:                                               ; preds = %38
  store i32 0, ptr %4, align 4, !tbaa !19
  br label %75

75:                                               ; preds = %108, %74
  %76 = load i32, ptr %4, align 4, !tbaa !19
  %77 = load ptr, ptr %2, align 8, !tbaa !4
  %78 = getelementptr inbounds nuw %struct.AVFilterContext, ptr %77, i32 0, i32 8
  %79 = load i32, ptr %78, align 8, !tbaa !36
  %80 = icmp ult i32 %76, %79
  br i1 %80, label %81, label %111

81:                                               ; preds = %75
  %82 = load ptr, ptr %2, align 8, !tbaa !4
  %83 = getelementptr inbounds nuw %struct.AVFilterContext, ptr %82, i32 0, i32 7
  %84 = load ptr, ptr %83, align 8, !tbaa !38
  %85 = load i32, ptr %4, align 4, !tbaa !19
  %86 = sext i32 %85 to i64
  %87 = getelementptr inbounds ptr, ptr %84, i64 %86
  %88 = load ptr, ptr %87, align 8, !tbaa !26
  call void @free_link(ptr noundef %88)
  %89 = load ptr, ptr %2, align 8, !tbaa !4
  %90 = getelementptr inbounds nuw %struct.AVFilterContext, ptr %89, i32 0, i32 6
  %91 = load ptr, ptr %90, align 8, !tbaa !43
  %92 = load i32, ptr %4, align 4, !tbaa !19
  %93 = sext i32 %92 to i64
  %94 = getelementptr inbounds %struct.AVFilterPad, ptr %91, i64 %93
  %95 = getelementptr inbounds nuw %struct.AVFilterPad, ptr %94, i32 0, i32 2
  %96 = load i32, ptr %95, align 4, !tbaa !23
  %97 = and i32 %96, 2
  %98 = icmp ne i32 %97, 0
  br i1 %98, label %99, label %107

99:                                               ; preds = %81
  %100 = load ptr, ptr %2, align 8, !tbaa !4
  %101 = getelementptr inbounds nuw %struct.AVFilterContext, ptr %100, i32 0, i32 6
  %102 = load ptr, ptr %101, align 8, !tbaa !43
  %103 = load i32, ptr %4, align 4, !tbaa !19
  %104 = sext i32 %103 to i64
  %105 = getelementptr inbounds %struct.AVFilterPad, ptr %102, i64 %104
  %106 = getelementptr inbounds nuw %struct.AVFilterPad, ptr %105, i32 0, i32 0
  call void @av_freep(ptr noundef %106)
  br label %107

107:                                              ; preds = %99, %81
  br label %108

108:                                              ; preds = %107
  %109 = load i32, ptr %4, align 4, !tbaa !19
  %110 = add nsw i32 %109, 1
  store i32 %110, ptr %4, align 4, !tbaa !19
  br label %75, !llvm.loop !148

111:                                              ; preds = %75
  %112 = load ptr, ptr %2, align 8, !tbaa !4
  %113 = getelementptr inbounds nuw %struct.AVFilterContext, ptr %112, i32 0, i32 1
  %114 = load ptr, ptr %113, align 8, !tbaa !110
  %115 = getelementptr inbounds nuw %struct.AVFilter, ptr %114, i32 0, i32 4
  %116 = load ptr, ptr %115, align 8, !tbaa !140
  %117 = icmp ne ptr %116, null
  br i1 %117, label %118, label %122

118:                                              ; preds = %111
  %119 = load ptr, ptr %2, align 8, !tbaa !4
  %120 = getelementptr inbounds nuw %struct.AVFilterContext, ptr %119, i32 0, i32 9
  %121 = load ptr, ptr %120, align 8, !tbaa !131
  call void @av_opt_free(ptr noundef %121)
  br label %122

122:                                              ; preds = %118, %111
  %123 = load ptr, ptr %2, align 8, !tbaa !4
  %124 = getelementptr inbounds nuw %struct.AVFilterContext, ptr %123, i32 0, i32 18
  call void @av_buffer_unref(ptr noundef %124)
  %125 = load ptr, ptr %2, align 8, !tbaa !4
  %126 = getelementptr inbounds nuw %struct.AVFilterContext, ptr %125, i32 0, i32 2
  call void @av_freep(ptr noundef %126)
  %127 = load ptr, ptr %2, align 8, !tbaa !4
  %128 = getelementptr inbounds nuw %struct.AVFilterContext, ptr %127, i32 0, i32 3
  call void @av_freep(ptr noundef %128)
  %129 = load ptr, ptr %2, align 8, !tbaa !4
  %130 = getelementptr inbounds nuw %struct.AVFilterContext, ptr %129, i32 0, i32 6
  call void @av_freep(ptr noundef %130)
  %131 = load ptr, ptr %2, align 8, !tbaa !4
  %132 = getelementptr inbounds nuw %struct.AVFilterContext, ptr %131, i32 0, i32 4
  call void @av_freep(ptr noundef %132)
  %133 = load ptr, ptr %2, align 8, !tbaa !4
  %134 = getelementptr inbounds nuw %struct.AVFilterContext, ptr %133, i32 0, i32 7
  call void @av_freep(ptr noundef %134)
  %135 = load ptr, ptr %2, align 8, !tbaa !4
  %136 = getelementptr inbounds nuw %struct.AVFilterContext, ptr %135, i32 0, i32 9
  call void @av_freep(ptr noundef %136)
  br label %137

137:                                              ; preds = %142, %122
  %138 = load ptr, ptr %3, align 8, !tbaa !74
  %139 = getelementptr inbounds nuw %struct.FFFilterContext, ptr %138, i32 0, i32 6
  %140 = load ptr, ptr %139, align 8, !tbaa !149
  %141 = icmp ne ptr %140, null
  br i1 %141, label %142, label %144

142:                                              ; preds = %137
  %143 = load ptr, ptr %2, align 8, !tbaa !4
  call void @command_queue_pop(ptr noundef %143)
  br label %137, !llvm.loop !150

144:                                              ; preds = %137
  %145 = load ptr, ptr %2, align 8, !tbaa !4
  call void @av_opt_free(ptr noundef %145)
  %146 = load ptr, ptr %3, align 8, !tbaa !74
  %147 = getelementptr inbounds nuw %struct.FFFilterContext, ptr %146, i32 0, i32 4
  %148 = load ptr, ptr %147, align 8, !tbaa !127
  call void @av_expr_free(ptr noundef %148)
  %149 = load ptr, ptr %3, align 8, !tbaa !74
  %150 = getelementptr inbounds nuw %struct.FFFilterContext, ptr %149, i32 0, i32 4
  store ptr null, ptr %150, align 8, !tbaa !127
  %151 = load ptr, ptr %3, align 8, !tbaa !74
  %152 = getelementptr inbounds nuw %struct.FFFilterContext, ptr %151, i32 0, i32 5
  call void @av_freep(ptr noundef %152)
  %153 = load ptr, ptr %2, align 8, !tbaa !4
  call void @av_free(ptr noundef %153)
  store i32 0, ptr %5, align 4
  br label %154

154:                                              ; preds = %144, %8
  call void @llvm.lifetime.end.p0(i64 4, ptr %4) #11
  call void @llvm.lifetime.end.p0(i64 8, ptr %3) #11
  %155 = load i32, ptr %5, align 4
  switch i32 %155, label %157 [
    i32 0, label %156
    i32 1, label %156
  ]

156:                                              ; preds = %154, %154
  ret void

157:                                              ; preds = %154
  unreachable
}