; Function Attrs: nounwind uwtable
define void @avfilter_free(ptr noundef %0) local_unnamed_addr #0 {
  %.not = icmp eq ptr %0, null
  br i1 %.not, label %74, label %2

2:                                                ; preds = %1
  %3 = getelementptr inbounds nuw i8, ptr %0, i64 80
  %4 = load ptr, ptr %3, align 8, !tbaa !19
  %.not43 = icmp eq ptr %4, null
  br i1 %.not43, label %6, label %5

5:                                                ; preds = %2
  tail call void @ff_filter_graph_remove_filter(ptr noundef nonnull %4, ptr noundef nonnull %0) #15
  br label %6

6:                                                ; preds = %5, %2
  %7 = getelementptr inbounds nuw i8, ptr %0, i64 8
  %8 = load ptr, ptr %7, align 8, !tbaa !92
  %9 = getelementptr inbounds nuw i8, ptr %8, i64 72
  %10 = load ptr, ptr %9, align 8, !tbaa !120
  %.not44 = icmp eq ptr %10, null
  br i1 %.not44, label %12, label %11

11:                                               ; preds = %6
  tail call void %10(ptr noundef nonnull %0) #15
  br label %12

12:                                               ; preds = %11, %6
  %13 = getelementptr inbounds nuw i8, ptr %0, i64 40
  %14 = load i32, ptr %13, align 8, !tbaa !28
  %.not56 = icmp eq i32 %14, 0
  br i1 %.not56, label %.preheader, label %.lr.ph

.lr.ph:                                           ; preds = %12
  %15 = getelementptr inbounds nuw i8, ptr %0, i64 32
  %16 = getelementptr inbounds nuw i8, ptr %0, i64 24
  br label %21

.preheader:                                       ; preds = %31, %12
  %17 = getelementptr inbounds nuw i8, ptr %0, i64 64
  %18 = load i32, ptr %17, align 8, !tbaa !27
  %.not57 = icmp eq i32 %18, 0
  br i1 %.not57, label %._crit_edge, label %.lr.ph51

.lr.ph51:                                         ; preds = %.preheader
  %19 = getelementptr inbounds nuw i8, ptr %0, i64 56
  %20 = getelementptr inbounds nuw i8, ptr %0, i64 48
  br label %35

21:                                               ; preds = %.lr.ph, %31
  %indvars.iv = phi i64 [ 0, %.lr.ph ], [ %indvars.iv.next, %31 ]
  %22 = load ptr, ptr %15, align 8, !tbaa !30
  %23 = getelementptr inbounds nuw ptr, ptr %22, i64 %indvars.iv
  %24 = load ptr, ptr %23, align 8, !tbaa !17
  tail call fastcc void @free_link(ptr noundef %24)
  %25 = load ptr, ptr %16, align 8, !tbaa !36
  %26 = getelementptr inbounds nuw %struct.AVFilterPad, ptr %25, i64 %indvars.iv
  %27 = getelementptr inbounds nuw i8, ptr %26, i64 12
  %28 = load i32, ptr %27, align 4, !tbaa !14
  %29 = and i32 %28, 2
  %.not48 = icmp eq i32 %29, 0
  br i1 %.not48, label %31, label %30

30:                                               ; preds = %21
  tail call void @av_freep(ptr noundef nonnull %26) #15
  br label %31

31:                                               ; preds = %21, %30
  %indvars.iv.next = add nuw nsw i64 %indvars.iv, 1
  %32 = load i32, ptr %13, align 8, !tbaa !28
  %33 = zext i32 %32 to i64
  %34 = icmp samesign ult i64 %indvars.iv.next, %33
  br i1 %34, label %21, label %.preheader, !llvm.loop !122

35:                                               ; preds = %.lr.ph51, %45
  %indvars.iv59 = phi i64 [ 0, %.lr.ph51 ], [ %indvars.iv.next60, %45 ]
  %36 = load ptr, ptr %19, align 8, !tbaa !29
  %37 = getelementptr inbounds nuw ptr, ptr %36, i64 %indvars.iv59
  %38 = load ptr, ptr %37, align 8, !tbaa !17
  tail call fastcc void @free_link(ptr noundef %38)
  %39 = load ptr, ptr %20, align 8, !tbaa !34
  %40 = getelementptr inbounds nuw %struct.AVFilterPad, ptr %39, i64 %indvars.iv59
  %41 = getelementptr inbounds nuw i8, ptr %40, i64 12
  %42 = load i32, ptr %41, align 4, !tbaa !14
  %43 = and i32 %42, 2
  %.not47 = icmp eq i32 %43, 0
  br i1 %.not47, label %45, label %44

44:                                               ; preds = %35
  tail call void @av_freep(ptr noundef nonnull %40) #15
  br label %45

45:                                               ; preds = %35, %44
  %indvars.iv.next60 = add nuw nsw i64 %indvars.iv59, 1
  %46 = load i32, ptr %17, align 8, !tbaa !27
  %47 = zext i32 %46 to i64
  %48 = icmp samesign ult i64 %indvars.iv.next60, %47
  br i1 %48, label %35, label %._crit_edge, !llvm.loop !123

._crit_edge:                                      ; preds = %45, %.preheader
  %49 = load ptr, ptr %7, align 8, !tbaa !92
  %50 = getelementptr inbounds nuw i8, ptr %49, i64 32
  %51 = load ptr, ptr %50, align 8, !tbaa !113
  %.not45 = icmp eq ptr %51, null
  br i1 %.not45, label %55, label %52

52:                                               ; preds = %._crit_edge
  %53 = getelementptr inbounds nuw i8, ptr %0, i64 72
  %54 = load ptr, ptr %53, align 8, !tbaa !107
  tail call void @av_opt_free(ptr noundef %54) #15
  br label %55

55:                                               ; preds = %52, %._crit_edge
  %56 = getelementptr inbounds nuw i8, ptr %0, i64 136
  tail call void @av_buffer_unref(ptr noundef nonnull %56) #15
  %57 = getelementptr inbounds nuw i8, ptr %0, i64 16
  tail call void @av_freep(ptr noundef nonnull %57) #15
  %58 = getelementptr inbounds nuw i8, ptr %0, i64 24
  tail call void @av_freep(ptr noundef nonnull %58) #15
  %59 = getelementptr inbounds nuw i8, ptr %0, i64 48
  tail call void @av_freep(ptr noundef nonnull %59) #15
  %60 = getelementptr inbounds nuw i8, ptr %0, i64 32
  tail call void @av_freep(ptr noundef nonnull %60) #15
  %61 = getelementptr inbounds nuw i8, ptr %0, i64 56
  tail call void @av_freep(ptr noundef nonnull %61) #15
  %62 = getelementptr inbounds nuw i8, ptr %0, i64 72
  tail call void @av_freep(ptr noundef nonnull %62) #15
  %63 = getelementptr inbounds nuw i8, ptr %0, i64 184
  %64 = load ptr, ptr %63, align 8, !tbaa !124
  %.not4652 = icmp eq ptr %64, null
  br i1 %.not4652, label %._crit_edge55, label %.lr.ph54

.lr.ph54:                                         ; preds = %55, %.lr.ph54
  %65 = phi ptr [ %70, %.lr.ph54 ], [ %64, %55 ]
  %66 = getelementptr inbounds nuw i8, ptr %65, i64 16
  tail call void @av_freep(ptr noundef nonnull %66) #15
  %67 = getelementptr inbounds nuw i8, ptr %65, i64 8
  tail call void @av_freep(ptr noundef nonnull %67) #15
  %68 = getelementptr inbounds nuw i8, ptr %65, i64 32
  %69 = load ptr, ptr %68, align 8, !tbaa !125
  store ptr %69, ptr %63, align 8, !tbaa !124
  tail call void @av_free(ptr noundef nonnull %65) #15
  %70 = load ptr, ptr %63, align 8, !tbaa !124
  %.not46 = icmp eq ptr %70, null
  br i1 %.not46, label %._crit_edge55, label %.lr.ph54, !llvm.loop !128

._crit_edge55:                                    ; preds = %.lr.ph54, %55
  tail call void @av_opt_free(ptr noundef nonnull %0) #15
  %71 = getelementptr inbounds nuw i8, ptr %0, i64 168
  %72 = load ptr, ptr %71, align 8, !tbaa !104
  tail call void @av_expr_free(ptr noundef %72) #15
  store ptr null, ptr %71, align 8, !tbaa !104
  %73 = getelementptr inbounds nuw i8, ptr %0, i64 176
  tail call void @av_freep(ptr noundef nonnull %73) #15
  tail call void @av_free(ptr noundef nonnull %0) #15
  br label %74

74:                                               ; preds = %1, %._crit_edge55
  ret void
}